target datalayout = "e-m:e-p270:32:32-p271:32:32-p272:64:64-i64:64-i128:128-f80:128-n8:16:32:64-S128"
target triple = "x86_64-pc-linux-gnu"

%struct._priv_exr_context_t = type { i8, i8, i8, i8, i8, i8, i8, i8, %struct.exr_attr_string_t, %struct.exr_attr_string_t, ptr, ptr, ptr, ptr, ptr, ptr, ptr, ptr, i32, i32, i32, i32, i32, float, ptr, ptr, ptr, i64, ptr, ptr, i64, i32, i32, i32, i32, %struct._priv_exr_part_t, ptr, ptr, %struct.exr_attribute_list, %union.pthread_mutex_t, i8, i8, [2 x i8], i32 }
%struct.exr_attr_string_t = type { i32, i32, ptr }
%struct._priv_exr_part_t = type { i32, i32, %struct.exr_attribute_list, ptr, ptr, ptr, ptr, ptr, ptr, ptr, ptr, ptr, ptr, ptr, ptr, ptr, ptr, %struct.exr_attr_box2i_t, %struct.exr_attr_box2i_t, i32, i32, i32, float, i32, i32, ptr, ptr, ptr, ptr, i64, i16, i16, i32, i64, i64 }
%struct.exr_attr_box2i_t = type { %struct.exr_attr_v2i_t, %struct.exr_attr_v2i_t }
%struct.exr_attr_v2i_t = type { i32, i32 }
%struct.exr_attribute_list = type { i32, i32, ptr, ptr }
%union.pthread_mutex_t = type { %struct.__pthread_mutex_s }
%struct.__pthread_mutex_s = type { i32, i32, i32, i32, i32, i16, i16, %struct.__pthread_internal_list }
%struct.__pthread_internal_list = type { ptr, ptr }
%struct.exr_attribute_t = type { ptr, ptr, i8, i8, [2 x i8], i32, %union.anon }
%union.anon = type { double }

@.str = private unnamed_addr constant [29 x i8] c"Part index (%d) out of range\00", align 1
@.str.13 = private unnamed_addr constant [19 x i8] c"screenWindowCenter\00", align 1
@.str.30 = private unnamed_addr constant [43 x i8] c"No input value for setting '%s', type '%s'\00", align 1
@.str.113 = private unnamed_addr constant [62 x i8] c"'%s' requested type 'v2f', but stored attributes is type '%s'\00", align 1
@.str.114 = private unnamed_addr constant [4 x i8] c"v2f\00", align 1

; Function Attrs: inlinehint nounwind uwtable
define internal void @internal_exr_unlock(ptr noundef %0) #2 {
  %2 = alloca ptr, align 8
  %3 = alloca ptr, align 8
  store ptr %0, ptr %2, align 8, !tbaa !3
  call void @llvm.lifetime.start.p0(i64 8, ptr %3) #8
  %4 = load ptr, ptr %2, align 8, !tbaa !3
  %5 = ptrtoint ptr %4 to i64
  %6 = inttoptr i64 %5 to ptr
  store ptr %6, ptr %3, align 8, !tbaa !3
  %7 = load ptr, ptr %3, align 8, !tbaa !3
  %8 = getelementptr inbounds nuw %struct._priv_exr_context_t, ptr %7, i32 0, i32 39
  %9 = call i32 @pthread_mutex_unlock(ptr noundef %8) #8
  call void @llvm.lifetime.end.p0(i64 8, ptr %3) #8
  ret void
}

; Function Attrs: inlinehint nounwind uwtable
define internal void @internal_exr_lock(ptr noundef %0) #2 {
  %2 = alloca ptr, align 8
  %3 = alloca ptr, align 8
  store ptr %0, ptr %2, align 8, !tbaa !3
  call void @llvm.lifetime.start.p0(i64 8, ptr %3) #8
  %4 = load ptr, ptr %2, align 8, !tbaa !3
  %5 = ptrtoint ptr %4 to i64
  %6 = inttoptr i64 %5 to ptr
  store ptr %6, ptr %3, align 8, !tbaa !3
  %7 = load ptr, ptr %3, align 8, !tbaa !3
  %8 = getelementptr inbounds nuw %struct._priv_exr_context_t, ptr %7, i32 0, i32 39
  %9 = call i32 @pthread_mutex_lock(ptr noundef %8) #8
  call void @llvm.lifetime.end.p0(i64 8, ptr %3) #8
  ret void
}

; Function Attrs: nounwind uwtable
define i32 @exr_attr_set_v2f(ptr noundef %0, i32 noundef %1, ptr noundef %2, ptr noundef %3) #0 {
  %5 = alloca i32, align 4
  %6 = alloca ptr, align 8
  %7 = alloca i32, align 4
  %8 = alloca ptr, align 8
  %9 = alloca ptr, align 8
  %10 = alloca ptr, align 8
  %11 = alloca i32, align 4
  %12 = alloca ptr, align 8
  %13 = alloca i32, align 4
  store ptr %0, ptr %6, align 8, !tbaa !3
  store i32 %1, ptr %7, align 4, !tbaa !8
  store ptr %2, ptr %8, align 8, !tbaa !36
  store ptr %3, ptr %9, align 8, !tbaa !35
  %14 = load ptr, ptr %8, align 8, !tbaa !36
  %15 = icmp ne ptr %14, null
  br i1 %15, label %16, label %25

16:                                               ; preds = %4
  %17 = load ptr, ptr %8, align 8, !tbaa !36
  %18 = call i32 @strcmp(ptr noundef %17, ptr noundef @.str.13) #9
  %19 = icmp eq i32 0, %18
  br i1 %19, label %20, label %25

20:                                               ; preds = %16
  %21 = load ptr, ptr %6, align 8, !tbaa !3
  %22 = load i32, ptr %7, align 4, !tbaa !8
  %23 = load ptr, ptr %9, align 8, !tbaa !35
  %24 = call i32 @exr_set_screen_window_center(ptr noundef %21, i32 noundef %22, ptr noundef %23)
  store i32 %24, ptr %5, align 4
  br label %156

25:                                               ; preds = %16, %4
  call void @llvm.lifetime.start.p0(i64 8, ptr %10) #8
  store ptr null, ptr %10, align 8, !tbaa !35
  call void @llvm.lifetime.start.p0(i64 4, ptr %11) #8
  store i32 0, ptr %11, align 4, !tbaa !8
  call void @llvm.lifetime.start.p0(i64 8, ptr %12) #8
  %26 = load ptr, ptr %6, align 8, !tbaa !3
  %27 = icmp ne ptr %26, null
  br i1 %27, label %29, label %28

28:                                               ; preds = %25
  store i32 2, ptr %5, align 4
  store i32 1, ptr %13, align 4
  br label %155

29:                                               ; preds = %25
  %30 = load ptr, ptr %6, align 8, !tbaa !3
  call void @internal_exr_lock(ptr noundef %30)
  %31 = load i32, ptr %7, align 4, !tbaa !8
  %32 = icmp slt i32 %31, 0
  br i1 %32, label %39, label %33

33:                                               ; preds = %29
  %34 = load i32, ptr %7, align 4, !tbaa !8
  %35 = load ptr, ptr %6, align 8, !tbaa !3
  %36 = getelementptr inbounds nuw %struct._priv_exr_context_t, ptr %35, i32 0, i32 34
  %37 = load i32, ptr %36, align 4, !tbaa !26
  %38 = icmp sge i32 %34, %37
  br i1 %38, label %39, label %47

39:                                               ; preds = %33, %29
  %40 = load ptr, ptr %6, align 8, !tbaa !3
  call void @internal_exr_unlock(ptr noundef %40)
  %41 = load ptr, ptr %6, align 8, !tbaa !3
  %42 = getelementptr inbounds nuw %struct._priv_exr_context_t, ptr %41, i32 0, i32 14
  %43 = load ptr, ptr %42, align 8, !tbaa !27
  %44 = load ptr, ptr %6, align 8, !tbaa !3
  %45 = load i32, ptr %7, align 4, !tbaa !8
  %46 = call i32 (ptr, i32, ptr, ...) %43(ptr noundef %44, i32 noundef 4, ptr noundef @.str, i32 noundef %45)
  store i32 %46, ptr %5, align 4
  store i32 1, ptr %13, align 4
  br label %155

47:                                               ; preds = %33
  %48 = load ptr, ptr %6, align 8, !tbaa !3
  %49 = getelementptr inbounds nuw %struct._priv_exr_context_t, ptr %48, i32 0, i32 37
  %50 = load ptr, ptr %49, align 8, !tbaa !28
  %51 = load i32, ptr %7, align 4, !tbaa !8
  %52 = sext i32 %51 to i64
  %53 = getelementptr inbounds ptr, ptr %50, i64 %52
  %54 = load ptr, ptr %53, align 8, !tbaa !29
  store ptr %54, ptr %12, align 8, !tbaa !29
  %55 = load ptr, ptr %6, align 8, !tbaa !3
  %56 = getelementptr inbounds nuw %struct._priv_exr_context_t, ptr %55, i32 0, i32 0
  %57 = load i8, ptr %56, align 8, !tbaa !12
  %58 = zext i8 %57 to i32
  %59 = icmp eq i32 %58, 0
  br i1 %59, label %60, label %67

60:                                               ; preds = %47
  %61 = load ptr, ptr %6, align 8, !tbaa !3
  call void @internal_exr_unlock(ptr noundef %61)
  %62 = load ptr, ptr %6, align 8, !tbaa !3
  %63 = getelementptr inbounds nuw %struct._priv_exr_context_t, ptr %62, i32 0, i32 12
  %64 = load ptr, ptr %63, align 8, !tbaa !31
  %65 = load ptr, ptr %6, align 8, !tbaa !3
  %66 = call i32 %64(ptr noundef %65, i32 noundef 8)
  store i32 %66, ptr %5, align 4
  store i32 1, ptr %13, align 4
  br label %155

67:                                               ; preds = %47
  %68 = load ptr, ptr %6, align 8, !tbaa !3
  %69 = getelementptr inbounds nuw %struct._priv_exr_context_t, ptr %68, i32 0, i32 0
  %70 = load i8, ptr %69, align 8, !tbaa !12
  %71 = zext i8 %70 to i32
  %72 = icmp eq i32 %71, 3
  br i1 %72, label %73, label %80

73:                                               ; preds = %67
  %74 = load ptr, ptr %6, align 8, !tbaa !3
  call void @internal_exr_unlock(ptr noundef %74)
  %75 = load ptr, ptr %6, align 8, !tbaa !3
  %76 = getelementptr inbounds nuw %struct._priv_exr_context_t, ptr %75, i32 0, i32 12
  %77 = load ptr, ptr %76, align 8, !tbaa !31
  %78 = load ptr, ptr %6, align 8, !tbaa !3
  %79 = call i32 %77(ptr noundef %78, i32 noundef 21)
  store i32 %79, ptr %5, align 4
  store i32 1, ptr %13, align 4
  br label %155

80:                                               ; preds = %67
  %81 = load ptr, ptr %6, align 8, !tbaa !3
  %82 = load ptr, ptr %12, align 8, !tbaa !29
  %83 = getelementptr inbounds nuw %struct._priv_exr_part_t, ptr %82, i32 0, i32 2
  %84 = load ptr, ptr %8, align 8, !tbaa !36
  %85 = call i32 @exr_attr_list_find_by_name(ptr noundef %81, ptr noundef %83, ptr noundef %84, ptr noundef %10)
  store i32 %85, ptr %11, align 4, !tbaa !8
  %86 = load i32, ptr %11, align 4, !tbaa !8
  %87 = icmp eq i32 %86, 15
  br i1 %87, label %88, label %109

88:                                               ; preds = %80
  %89 = load ptr, ptr %6, align 8, !tbaa !3
  %90 = getelementptr inbounds nuw %struct._priv_exr_context_t, ptr %89, i32 0, i32 0
  %91 = load i8, ptr %90, align 8, !tbaa !12
  %92 = zext i8 %91 to i32
  %93 = icmp ne i32 %92, 1
  br i1 %93, label %94, label %103

94:                                               ; preds = %88
  %95 = load ptr, ptr %6, align 8, !tbaa !3
  %96 = getelementptr inbounds nuw %struct._priv_exr_context_t, ptr %95, i32 0, i32 0
  %97 = load i8, ptr %96, align 8, !tbaa !12
  %98 = zext i8 %97 to i32
  %99 = icmp ne i32 %98, 4
  br i1 %99, label %100, label %103

100:                                              ; preds = %94
  %101 = load ptr, ptr %6, align 8, !tbaa !3
  call void @internal_exr_unlock(ptr noundef %101)
  %102 = load i32, ptr %11, align 4, !tbaa !8
  store i32 %102, ptr %5, align 4
  store i32 1, ptr %13, align 4
  br label %155

103:                                              ; preds = %94, %88
  %104 = load ptr, ptr %6, align 8, !tbaa !3
  %105 = load ptr, ptr %12, align 8, !tbaa !29
  %106 = getelementptr inbounds nuw %struct._priv_exr_part_t, ptr %105, i32 0, i32 2
  %107 = load ptr, ptr %8, align 8, !tbaa !36
  %108 = call i32 @exr_attr_list_add(ptr noundef %104, ptr noundef %106, ptr noundef %107, i32 noundef 24, i32 noundef 0, ptr noundef null, ptr noundef %10)
  store i32 %108, ptr %11, align 4, !tbaa !8
  br label %133

109:                                              ; preds = %80
  %110 = load i32, ptr %11, align 4, !tbaa !8
  %111 = icmp eq i32 %110, 0
  br i1 %111, label %112, label %129

112:                                              ; preds = %109
  %113 = load ptr, ptr %10, align 8, !tbaa !35
  %114 = getelementptr inbounds nuw %struct.exr_attribute_t, ptr %113, i32 0, i32 5
  %115 = load i32, ptr %114, align 4, !tbaa !39
  %116 = icmp ne i32 %115, 24
  br i1 %116, label %117, label %128

117:                                              ; preds = %112
  %118 = load ptr, ptr %6, align 8, !tbaa !3
  call void @internal_exr_unlock(ptr noundef %118)
  %119 = load ptr, ptr %6, align 8, !tbaa !3
  %120 = getelementptr inbounds nuw %struct._priv_exr_context_t, ptr %119, i32 0, i32 14
  %121 = load ptr, ptr %120, align 8, !tbaa !27
  %122 = load ptr, ptr %6, align 8, !tbaa !3
  %123 = load ptr, ptr %8, align 8, !tbaa !36
  %124 = load ptr, ptr %10, align 8, !tbaa !35
  %125 = getelementptr inbounds nuw %struct.exr_attribute_t, ptr %124, i32 0, i32 1
  %126 = load ptr, ptr %125, align 8, !tbaa !41
  %127 = call i32 (ptr, i32, ptr, ...) %121(ptr noundef %122, i32 noundef 16, ptr noundef @.str.113, ptr noundef %123, ptr noundef %126)
  store i32 %127, ptr %5, align 4
  store i32 1, ptr %13, align 4
  br label %155

128:                                              ; preds = %112
  br label %132

129:                                              ; preds = %109
  %130 = load ptr, ptr %6, align 8, !tbaa !3
  call void @internal_exr_unlock(ptr noundef %130)
  %131 = load i32, ptr %11, align 4, !tbaa !8
  store i32 %131, ptr %5, align 4
  store i32 1, ptr %13, align 4
  br label %155

132:                                              ; preds = %128
  br label %133

133:                                              ; preds = %132, %103
  %134 = load ptr, ptr %9, align 8, !tbaa !35
  %135 = icmp ne ptr %134, null
  br i1 %135, label %144, label %136

136:                                              ; preds = %133
  %137 = load ptr, ptr %6, align 8, !tbaa !3
  call void @internal_exr_unlock(ptr noundef %137)
  %138 = load ptr, ptr %6, align 8, !tbaa !3
  %139 = getelementptr inbounds nuw %struct._priv_exr_context_t, ptr %138, i32 0, i32 14
  %140 = load ptr, ptr %139, align 8, !tbaa !27
  %141 = load ptr, ptr %6, align 8, !tbaa !3
  %142 = load ptr, ptr %8, align 8, !tbaa !36
  %143 = call i32 (ptr, i32, ptr, ...) %140(ptr noundef %141, i32 noundef 3, ptr noundef @.str.30, ptr noundef %142, ptr noundef @.str.114)
  store i32 %143, ptr %5, align 4
  store i32 1, ptr %13, align 4
  br label %155

144:                                              ; preds = %133
  %145 = load i32, ptr %11, align 4, !tbaa !8
  %146 = icmp eq i32 %145, 0
  br i1 %146, label %147, label %152

147:                                              ; preds = %144
  %148 = load ptr, ptr %10, align 8, !tbaa !35
  %149 = getelementptr inbounds nuw %struct.exr_attribute_t, ptr %148, i32 0, i32 6
  %150 = load ptr, ptr %149, align 8, !tbaa !42
  %151 = load ptr, ptr %9, align 8, !tbaa !35
  call void @llvm.memcpy.p0.p0.i64(ptr align 1 %150, ptr align 1 %151, i64 8, i1 false), !tbaa.struct !87
  br label %152

152:                                              ; preds = %147, %144
  %153 = load ptr, ptr %6, align 8, !tbaa !3
  call void @internal_exr_unlock(ptr noundef %153)
  %154 = load i32, ptr %11, align 4, !tbaa !8
  store i32 %154, ptr %5, align 4
  store i32 1, ptr %13, align 4
  br label %155

155:                                              ; preds = %152, %136, %129, %117, %100, %73, %60, %39, %28
  call void @llvm.lifetime.end.p0(i64 8, ptr %12) #8
  call void @llvm.lifetime.end.p0(i64 4, ptr %11) #8
  call void @llvm.lifetime.end.p0(i64 8, ptr %10) #8
  br label %156

156:                                              ; preds = %155, %20
  %157 = load i32, ptr %5, align 4
  ret i32 %157
}