; Function Attrs: nounwind uwtable
define i32 @exr_attr_set_v2f(ptr noundef %0, i32 noundef %1, ptr noundef %2, ptr noundef %3) local_unnamed_addr #0 {
  %5 = alloca ptr, align 8
  %.not = icmp eq ptr %2, null
  br i1 %.not, label %11, label %6

6:                                                ; preds = %4
  %7 = tail call i32 @strcmp(ptr noundef nonnull dereferenceable(1) %2, ptr noundef nonnull dereferenceable(19) @.str.13) #7
  %8 = icmp eq i32 %7, 0
  br i1 %8, label %9, label %11

9:                                                ; preds = %6
  %10 = tail call i32 @exr_set_screen_window_center(ptr noundef %0, i32 noundef %1, ptr noundef %3)
  br label %78

11:                                               ; preds = %6, %4
  call void @llvm.lifetime.start.p0(i64 8, ptr nonnull %5) #6
  store ptr null, ptr %5, align 8, !tbaa !30
  %.not60 = icmp eq ptr %0, null
  br i1 %.not60, label %77, label %12

12:                                               ; preds = %11
  %13 = getelementptr inbounds nuw i8, ptr %0, i64 504
  %14 = tail call i32 @pthread_mutex_lock(ptr noundef nonnull %13) #6
  %15 = icmp slt i32 %1, 0
  br i1 %15, label %19, label %16

16:                                               ; preds = %12
  %17 = getelementptr inbounds nuw i8, ptr %0, i64 196
  %18 = load i32, ptr %17, align 4, !tbaa !22
  %.not61 = icmp slt i32 %1, %18
  br i1 %.not61, label %24, label %19

19:                                               ; preds = %16, %12
  %20 = tail call i32 @pthread_mutex_unlock(ptr noundef nonnull %13) #6
  %21 = getelementptr inbounds nuw i8, ptr %0, i64 72
  %22 = load ptr, ptr %21, align 8, !tbaa !23
  %23 = tail call i32 (ptr, i32, ptr, ...) %22(ptr noundef nonnull %0, i32 noundef 4, ptr noundef nonnull @.str, i32 noundef %1) #6
  br label %77

24:                                               ; preds = %16
  %25 = load i8, ptr %0, align 8, !tbaa !3
  switch i8 %25, label %36 [
    i8 0, label %26
    i8 3, label %31
  ]

26:                                               ; preds = %24
  %27 = tail call i32 @pthread_mutex_unlock(ptr noundef nonnull %13) #6
  %28 = getelementptr inbounds nuw i8, ptr %0, i64 56
  %29 = load ptr, ptr %28, align 8, !tbaa !27
  %30 = tail call i32 %29(ptr noundef nonnull %0, i32 noundef 8) #6
  br label %77

31:                                               ; preds = %24
  %32 = tail call i32 @pthread_mutex_unlock(ptr noundef nonnull %13) #6
  %33 = getelementptr inbounds nuw i8, ptr %0, i64 56
  %34 = load ptr, ptr %33, align 8, !tbaa !27
  %35 = tail call i32 %34(ptr noundef nonnull %0, i32 noundef 21) #6
  br label %77

36:                                               ; preds = %24
  %37 = getelementptr inbounds nuw i8, ptr %0, i64 472
  %38 = load ptr, ptr %37, align 8, !tbaa !24
  %39 = zext nneg i32 %1 to i64
  %40 = getelementptr inbounds nuw ptr, ptr %38, i64 %39
  %41 = load ptr, ptr %40, align 8, !tbaa !25
  %42 = getelementptr inbounds nuw i8, ptr %41, i64 8
  %43 = call i32 @exr_attr_list_find_by_name(ptr noundef nonnull %0, ptr noundef nonnull %42, ptr noundef %2, ptr noundef nonnull %5) #6
  switch i32 %43, label %60 [
    i32 15, label %44
    i32 0, label %48
  ]

44:                                               ; preds = %36
  %45 = load i8, ptr %0, align 8, !tbaa !3
  switch i8 %45, label %46 [
    i8 1, label %62
    i8 4, label %62
  ]

46:                                               ; preds = %44
  %47 = call i32 @pthread_mutex_unlock(ptr noundef nonnull %13) #6
  br label %77

48:                                               ; preds = %36
  %49 = load ptr, ptr %5, align 8, !tbaa !30
  %50 = getelementptr inbounds nuw i8, ptr %49, i64 20
  %51 = load i32, ptr %50, align 4, !tbaa !32
  %.not62 = icmp eq i32 %51, 24
  br i1 %.not62, label %.thread, label %52

52:                                               ; preds = %48
  %53 = call i32 @pthread_mutex_unlock(ptr noundef nonnull %13) #6
  %54 = getelementptr inbounds nuw i8, ptr %0, i64 72
  %55 = load ptr, ptr %54, align 8, !tbaa !23
  %56 = load ptr, ptr %5, align 8, !tbaa !30
  %57 = getelementptr inbounds nuw i8, ptr %56, i64 8
  %58 = load ptr, ptr %57, align 8, !tbaa !34
  %59 = call i32 (ptr, i32, ptr, ...) %55(ptr noundef nonnull %0, i32 noundef 16, ptr noundef nonnull @.str.113, ptr noundef %2, ptr noundef %58) #6
  br label %77

60:                                               ; preds = %36
  %61 = call i32 @pthread_mutex_unlock(ptr noundef nonnull %13) #6
  br label %77

62:                                               ; preds = %44, %44
  %63 = call i32 @exr_attr_list_add(ptr noundef nonnull %0, ptr noundef nonnull %42, ptr noundef %2, i32 noundef 24, i32 noundef 0, ptr noundef null, ptr noundef nonnull %5) #6
  %.not65 = icmp eq ptr %3, null
  br i1 %.not65, label %64, label %69

.thread:                                          ; preds = %48
  %.not6567 = icmp eq ptr %3, null
  br i1 %.not6567, label %64, label %.thread69

64:                                               ; preds = %.thread, %62
  %65 = call i32 @pthread_mutex_unlock(ptr noundef nonnull %13) #6
  %66 = getelementptr inbounds nuw i8, ptr %0, i64 72
  %67 = load ptr, ptr %66, align 8, !tbaa !23
  %68 = call i32 (ptr, i32, ptr, ...) %67(ptr noundef nonnull %0, i32 noundef 3, ptr noundef nonnull @.str.30, ptr noundef %2, ptr noundef nonnull @.str.114) #6
  br label %77

69:                                               ; preds = %62
  %70 = icmp eq i32 %63, 0
  br i1 %70, label %..thread69_crit_edge, label %75

..thread69_crit_edge:                             ; preds = %69
  %.pre = load ptr, ptr %5, align 8, !tbaa !30
  br label %.thread69

.thread69:                                        ; preds = %..thread69_crit_edge, %.thread
  %71 = phi ptr [ %.pre, %..thread69_crit_edge ], [ %49, %.thread ]
  %72 = getelementptr inbounds nuw i8, ptr %71, i64 24
  %73 = load ptr, ptr %72, align 8, !tbaa !35
  %74 = load i64, ptr %3, align 1
  store i64 %74, ptr %73, align 1
  br label %75

75:                                               ; preds = %.thread69, %69
  %.0516871 = phi i32 [ 0, %.thread69 ], [ %63, %69 ]
  %76 = call i32 @pthread_mutex_unlock(ptr noundef nonnull %13) #6
  br label %77

77:                                               ; preds = %11, %75, %64, %60, %52, %46, %31, %26, %19
  %.1 = phi i32 [ %23, %19 ], [ %30, %26 ], [ %35, %31 ], [ 15, %46 ], [ %.0516871, %75 ], [ %68, %64 ], [ %59, %52 ], [ %43, %60 ], [ 2, %11 ]
  call void @llvm.lifetime.end.p0(i64 8, ptr nonnull %5) #6
  br label %78

78:                                               ; preds = %77, %9
  %.0 = phi i32 [ %10, %9 ], [ %.1, %77 ]
  ret i32 %.0
}